target datalayout = "e-m:e-p270:32:32-p271:32:32-p272:64:64-i64:64-i128:128-f80:128-n8:16:32:64-S128"
target triple = "x86_64-pc-linux-gnu"

@test_size_t_priority_counts = internal constant [8 x i32] [i32 10, i32 11, i32 6, i32 5, i32 3, i32 1, i32 2, i32 7500], align 16

; Function Attrs: nounwind uwtable
define internal i32 @test_size_t_priority_queue(i32 noundef %0) #0 {
  %2 = alloca i32, align 4
  %3 = alloca i32, align 4
  %4 = alloca i32, align 4
  %5 = alloca i32, align 4
  %6 = alloca i32, align 4
  %7 = alloca i32, align 4
  %8 = alloca i32, align 4
  store i32 %0, ptr %2, align 4, !tbaa !4
  call void @llvm.lifetime.start.p0(i64 4, ptr %3) #6
  call void @llvm.lifetime.start.p0(i64 4, ptr %4) #6
  call void @llvm.lifetime.start.p0(i64 4, ptr %5) #6
  call void @llvm.lifetime.start.p0(i64 4, ptr %6) #6
  call void @llvm.lifetime.start.p0(i64 4, ptr %7) #6
  call void @llvm.lifetime.start.p0(i64 4, ptr %8) #6
  %9 = load i32, ptr %2, align 4, !tbaa !4
  %10 = sext i32 %9 to i64
  %11 = urem i64 %10, 8
  %12 = trunc i64 %11 to i32
  store i32 %12, ptr %5, align 4, !tbaa !4
  %13 = load i32, ptr %2, align 4, !tbaa !4
  %14 = sext i32 %13 to i64
  %15 = udiv i64 %14, 8
  %16 = trunc i64 %15 to i32
  store i32 %16, ptr %2, align 4, !tbaa !4
  %17 = load i32, ptr %2, align 4, !tbaa !4
  %18 = srem i32 %17, 3
  store i32 %18, ptr %4, align 4, !tbaa !4
  %19 = load i32, ptr %2, align 4, !tbaa !4
  %20 = sdiv i32 %19, 3
  store i32 %20, ptr %2, align 4, !tbaa !4
  %21 = load i32, ptr %2, align 4, !tbaa !4
  %22 = srem i32 %21, 2
  store i32 %22, ptr %7, align 4, !tbaa !4
  %23 = load i32, ptr %2, align 4, !tbaa !4
  %24 = sdiv i32 %23, 2
  store i32 %24, ptr %2, align 4, !tbaa !4
  %25 = load i32, ptr %2, align 4, !tbaa !4
  %26 = srem i32 %25, 2
  store i32 %26, ptr %3, align 4, !tbaa !4
  %27 = load i32, ptr %2, align 4, !tbaa !4
  %28 = sdiv i32 %27, 2
  store i32 %28, ptr %2, align 4, !tbaa !4
  %29 = load i32, ptr %2, align 4, !tbaa !4
  %30 = srem i32 %29, 6
  store i32 %30, ptr %6, align 4, !tbaa !4
  %31 = load i32, ptr %2, align 4, !tbaa !4
  %32 = sdiv i32 %31, 6
  store i32 %32, ptr %2, align 4, !tbaa !4
  %33 = load i32, ptr %2, align 4, !tbaa !4
  %34 = srem i32 %33, 2
  store i32 %34, ptr %8, align 4, !tbaa !4
  %35 = load i32, ptr %5, align 4, !tbaa !4
  %36 = sext i32 %35 to i64
  %37 = getelementptr inbounds [8 x i32], ptr @test_size_t_priority_counts, i64 0, i64 %36
  %38 = load i32, ptr %37, align 4, !tbaa !4
  store i32 %38, ptr %5, align 4, !tbaa !4
  %39 = load i32, ptr %3, align 4, !tbaa !4
  %40 = load i32, ptr %4, align 4, !tbaa !4
  %41 = load i32, ptr %5, align 4, !tbaa !4
  %42 = load i32, ptr %6, align 4, !tbaa !4
  %43 = load i32, ptr %7, align 4, !tbaa !4
  %44 = load i32, ptr %8, align 4, !tbaa !4
  %45 = call i32 @test_size_t_priority_queue_int(i32 noundef %39, i32 noundef %40, i32 noundef %41, i32 noundef %42, i32 noundef %43, i32 noundef %44)
  call void @llvm.lifetime.end.p0(i64 4, ptr %8) #6
  call void @llvm.lifetime.end.p0(i64 4, ptr %7) #6
  call void @llvm.lifetime.end.p0(i64 4, ptr %6) #6
  call void @llvm.lifetime.end.p0(i64 4, ptr %5) #6
  call void @llvm.lifetime.end.p0(i64 4, ptr %4) #6
  call void @llvm.lifetime.end.p0(i64 4, ptr %3) #6
  ret i32 %45
}