; Function Attrs: nounwind uwtable
define internal range(i32 0, 2) i32 @test_size_t_priority_queue(i32 noundef %0) #0 {
  %2 = and i32 %0, 7
  %3 = ashr i32 %0, 3
  %4 = srem i32 %3, 3
  %5 = sdiv i32 %3, 3
  %6 = srem i32 %5, 2
  %7 = sdiv i32 %3, 6
  %8 = srem i32 %7, 2
  %9 = sdiv i32 %3, 12
  %10 = srem i32 %9, 6
  %11 = sdiv i32 %3, 72
  %12 = srem i32 %11, 2
  %13 = zext nneg i32 %2 to i64
  %14 = getelementptr inbounds nuw [8 x i32], ptr @test_size_t_priority_counts, i64 0, i64 %13
  %15 = load i32, ptr %14, align 4, !tbaa !4
  %16 = tail call fastcc i32 @test_size_t_priority_queue_int(i32 noundef %8, i32 noundef %4, i32 noundef %15, i32 noundef %10, i32 noundef %6, i32 noundef %12)
  ret i32 %16
}